target datalayout = "e-m:e-p270:32:32-p271:32:32-p272:64:64-i64:64-i128:128-f80:128-n8:16:32:64-S128"
target triple = "x86_64-pc-linux-gnu"

; Function Attrs: null_pointer_is_valid sspstrong uwtable
define internal i32 @get_fcgi_record_len(ptr noundef %0, ptr noundef %1, i32 noundef %2, ptr noundef %3) #0 {
  %5 = alloca ptr, align 8
  %6 = alloca ptr, align 8
  %7 = alloca i32, align 4
  %8 = alloca ptr, align 8
  store ptr %0, ptr %5, align 8
  store ptr %1, ptr %6, align 8
  store i32 %2, ptr %7, align 4
  store ptr %3, ptr %8, align 8
  %9 = load ptr, ptr %6, align 8
  %10 = load i32, ptr %7, align 4
  %11 = add i32 %10, 4
  %12 = call zeroext i16 @tvb_get_ntohs(ptr noundef %9, i32 noundef %11)
  %13 = zext i16 %12 to i32
  %14 = add i32 8, %13
  %15 = load ptr, ptr %6, align 8
  %16 = load i32, ptr %7, align 4
  %17 = add i32 %16, 6
  %18 = call zeroext i8 @tvb_get_uint8(ptr noundef %15, i32 noundef %17)
  %19 = zext i8 %18 to i32
  %20 = add i32 %14, %19
  ret i32 %20
}