; Function Attrs: null_pointer_is_valid sspstrong uwtable
define internal range(i32 8, 65799) i32 @get_fcgi_record_len(ptr readnone captures(none) %0, ptr noundef %1, i32 noundef %2, ptr readnone captures(none) %3) #0 {
  %5 = add i32 %2, 4
  %6 = tail call zeroext i16 @tvb_get_ntohs(ptr noundef %1, i32 noundef %5)
  %7 = zext i16 %6 to i32
  %8 = add nuw nsw i32 %7, 8
  %9 = add i32 %2, 6
  %10 = tail call zeroext i8 @tvb_get_uint8(ptr noundef %1, i32 noundef %9)
  %11 = zext i8 %10 to i32
  %12 = add nuw nsw i32 %8, %11
  ret i32 %12
}